; ModuleID = 'source-C-CXX/35/1279.c'
source_filename = "source-C-CXX/35/1279.c"
target datalayout = "e-m:e-p270:32:32-p271:32:32-p272:64:64-i64:64-f80:128-n8:16:32:64-S128"
target triple = "x86_64-pc-linux-gnu"

@.str = private unnamed_addr constant [3 x i8] c"%s\00", align 1
@.str.1 = private unnamed_addr constant [3 x i8] c"NO\00", align 1
@.str.2 = private unnamed_addr constant [4 x i8] c"YES\00", align 1

; Function Attrs: nofree nounwind sspstrong uwtable
define dso_local i32 @main() local_unnamed_addr #0 {
  %1 = alloca [50 x i8], align 16
  %2 = alloca [50 x i8], align 16
  %3 = getelementptr inbounds [50 x i8], [50 x i8]* %1, i64 0, i64 0
  call void @llvm.lifetime.start.p0i8(i64 50, i8* nonnull %3) #4
  %4 = getelementptr inbounds [50 x i8], [50 x i8]* %2, i64 0, i64 0
  call void @llvm.lifetime.start.p0i8(i64 50, i8* nonnull %4) #4
  %5 = call i32 (i8*, ...) @__isoc99_scanf(i8* getelementptr inbounds ([3 x i8], [3 x i8]* @.str, i64 0, i64 0), i8* nonnull %3)
  %6 = call i32 (i8*, ...) @__isoc99_scanf(i8* getelementptr inbounds ([3 x i8], [3 x i8]* @.str, i64 0, i64 0), i8* nonnull %4)
  %7 = call i64 @strlen(i8* noundef nonnull %3) #5
  %8 = trunc i64 %7 to i32
  %9 = call i64 @strlen(i8* noundef nonnull %4) #5
  %10 = trunc i64 %9 to i32
  %11 = icmp eq i32 %8, %10
  br i1 %11, label %12, label %40

12:                                               ; preds = %0
  %13 = icmp sgt i32 %8, 0
  br i1 %13, label %14, label %40

14:                                               ; preds = %12
  %15 = and i64 %7, 4294967295
  br label %16

16:                                               ; preds = %14, %33
  %17 = phi i64 [ 0, %14 ], [ %35, %33 ]
  %18 = phi i32 [ 0, %14 ], [ %34, %33 ]
  %19 = getelementptr inbounds [50 x i8], [50 x i8]* %1, i64 0, i64 %17
  %20 = load i8, i8* %19, align 1, !tbaa !5
  br label %21

21:                                               ; preds = %16, %26
  %22 = phi i64 [ 0, %16 ], [ %27, %26 ]
  %23 = getelementptr inbounds [50 x i8], [50 x i8]* %2, i64 0, i64 %22
  %24 = load i8, i8* %23, align 1, !tbaa !5
  %25 = icmp eq i8 %20, %24
  br i1 %25, label %29, label %26

26:                                               ; preds = %21
  %27 = add nuw nsw i64 %22, 1
  %28 = icmp eq i64 %27, %15
  br i1 %28, label %33, label %21, !llvm.loop !8

29:                                               ; preds = %21
  %30 = and i64 %22, 4294967295
  %31 = getelementptr inbounds [50 x i8], [50 x i8]* %2, i64 0, i64 %30
  %32 = add nsw i32 %18, 1
  store i8 48, i8* %31, align 1, !tbaa !5
  br label %33

33:                                               ; preds = %26, %29
  %34 = phi i32 [ %32, %29 ], [ %18, %26 ]
  %35 = add nuw nsw i64 %17, 1
  %36 = icmp eq i64 %35, %15
  br i1 %36, label %37, label %16, !llvm.loop !10

37:                                               ; preds = %33
  %38 = icmp eq i32 %34, %8
  %39 = select i1 %38, i8* getelementptr inbounds ([4 x i8], [4 x i8]* @.str.2, i64 0, i64 0), i8* getelementptr inbounds ([3 x i8], [3 x i8]* @.str.1, i64 0, i64 0)
  br label %40

40:                                               ; preds = %37, %12, %0
  %41 = phi i8* [ getelementptr inbounds ([3 x i8], [3 x i8]* @.str.1, i64 0, i64 0), %0 ], [ getelementptr inbounds ([4 x i8], [4 x i8]* @.str.2, i64 0, i64 0), %12 ], [ %39, %37 ]
  %42 = call i32 (i8*, ...) @printf(i8* nonnull dereferenceable(1) %41)
  call void @llvm.lifetime.end.p0i8(i64 50, i8* nonnull %4) #4
  call void @llvm.lifetime.end.p0i8(i64 50, i8* nonnull %3) #4
  ret i32 0
}

; Function Attrs: argmemonly mustprogress nofree nosync nounwind willreturn
declare void @llvm.lifetime.start.p0i8(i64 immarg, i8* nocapture) #1

; Function Attrs: nofree nounwind
declare noundef i32 @__isoc99_scanf(i8* nocapture noundef readonly, ...) local_unnamed_addr #2

; Function Attrs: argmemonly mustprogress nofree nounwind readonly willreturn
declare i64 @strlen(i8* nocapture) local_unnamed_addr #3

; Function Attrs: nofree nounwind
declare noundef i32 @printf(i8* nocapture noundef readonly, ...) local_unnamed_addr #2

; Function Attrs: argmemonly mustprogress nofree nosync nounwind willreturn
declare void @llvm.lifetime.end.p0i8(i64 immarg, i8* nocapture) #1


!llvm.module.flags = !{!0, !1, !2, !3}
!llvm.ident = !{!4}

!0 = !{i32 1, !"wchar_size", i32 4}
!1 = !{i32 7, !"PIC Level", i32 2}
!2 = !{i32 7, !"PIE Level", i32 2}
!3 = !{i32 7, !"uwtable", i32 1}
!4 = !{!"clang version 13.0.0"}
!5 = !{!6, !6, i64 0}
!6 = !{!"omnipotent char", !7, i64 0}
!7 = !{!"Simple C/C++ TBAA"}
!8 = distinct !{!8, !9}
!9 = !{!"llvm.loop.mustprogress"}
!10 = distinct !{!10, !9}
